target datalayout = "e-m:e-p270:32:32-p271:32:32-p272:64:64-i64:64-i128:128-f80:128-n8:16:32:64-S128"
target triple = "x86_64-pc-linux-gnu"

%struct.ldap_conv_info_t = type { i32, ptr, i32, ptr, ptr, i8, i32, i8, i32 }

@proto_ldap = internal global i32 0, align 4
@ldap_desegment = internal global i8 1, align 1
@ldm_tree = internal global ptr null, align 8

; Function Attrs: null_pointer_is_valid sspstrong uwtable
define internal i32 @dissect_ldap_tcp(ptr noundef %0, ptr noundef %1, ptr noundef %2, ptr noundef %3) #0 {
  %5 = alloca i32, align 4
  %6 = alloca ptr, align 8
  %7 = alloca ptr, align 8
  %8 = alloca ptr, align 8
  %9 = alloca ptr, align 8
  %10 = alloca i32, align 4
  %11 = alloca i32, align 4
  %12 = alloca i8, align 1
  %13 = alloca ptr, align 8
  %14 = alloca ptr, align 8
  %15 = alloca i32, align 4
  store ptr %0, ptr %6, align 8
  store ptr %1, ptr %7, align 8
  store ptr %2, ptr %8, align 8
  store ptr %3, ptr %9, align 8
  call void @llvm.lifetime.start.p0(i64 4, ptr %10) #16
  call void @llvm.lifetime.start.p0(i64 4, ptr %11) #16
  call void @llvm.lifetime.start.p0(i64 1, ptr %12) #16
  call void @llvm.lifetime.start.p0(i64 8, ptr %13) #16
  call void @llvm.lifetime.start.p0(i64 8, ptr %14) #16
  store ptr null, ptr %14, align 8
  %16 = load ptr, ptr %7, align 8
  %17 = call ptr @find_conversation_pinfo(ptr noundef %16, i32 noundef 0)
  store ptr %17, ptr %13, align 8
  %18 = load ptr, ptr %13, align 8
  %19 = icmp ne ptr %18, null
  br i1 %19, label %20, label %24

20:                                               ; preds = %4
  %21 = load ptr, ptr %13, align 8
  %22 = load i32, ptr @proto_ldap, align 4
  %23 = call ptr @conversation_get_proto_data(ptr noundef %21, i32 noundef %22)
  store ptr %23, ptr %14, align 8
  br label %24

24:                                               ; preds = %20, %4
  store ptr null, ptr @ldm_tree, align 8
  %25 = load ptr, ptr %6, align 8
  %26 = call i32 @tvb_get_ntohl(ptr noundef %25, i32 noundef 0)
  store i32 %26, ptr %10, align 4
  %27 = load i32, ptr %10, align 4
  %28 = icmp ult i32 %27, 2
  br i1 %28, label %29, label %30

29:                                               ; preds = %24
  br label %52

30:                                               ; preds = %24
  %31 = load i32, ptr %10, align 4
  %32 = icmp ugt i32 %31, 1048576
  br i1 %32, label %33, label %34

33:                                               ; preds = %30
  br label %52

34:                                               ; preds = %30
  %35 = load ptr, ptr %14, align 8
  %36 = icmp ne ptr %35, null
  br i1 %36, label %37, label %42

37:                                               ; preds = %34
  %38 = load ptr, ptr %14, align 8
  %39 = getelementptr inbounds nuw %struct.ldap_conv_info_t, ptr %38, i32 0, i32 0
  %40 = load i32, ptr %39, align 8
  %41 = icmp ne i32 %40, 3
  br i1 %41, label %42, label %43

42:                                               ; preds = %37, %34
  br label %52

43:                                               ; preds = %37
  %44 = load ptr, ptr %6, align 8
  %45 = load ptr, ptr %7, align 8
  %46 = load ptr, ptr %8, align 8
  %47 = load i8, ptr @ldap_desegment, align 1, !range !6, !noundef !7
  %48 = trunc i8 %47 to i1
  %49 = load ptr, ptr %9, align 8
  call void @tcp_dissect_pdus(ptr noundef %44, ptr noundef %45, ptr noundef %46, i1 noundef zeroext %48, i32 noundef 4, ptr noundef @get_sasl_ldap_pdu_len, ptr noundef @dissect_sasl_ldap_pdu, ptr noundef %49)
  %50 = load ptr, ptr %6, align 8
  %51 = call i32 @tvb_captured_length(ptr noundef %50)
  store i32 %51, ptr %5, align 4
  store i32 1, ptr %15, align 4
  br label %88

52:                                               ; preds = %42, %33, %29
  %53 = load ptr, ptr %6, align 8
  %54 = call zeroext i8 @tvb_get_uint8(ptr noundef %53, i32 noundef 0)
  %55 = zext i8 %54 to i32
  %56 = icmp ne i32 %55, 48
  br i1 %56, label %57, label %58

57:                                               ; preds = %52
  br label %71

58:                                               ; preds = %52
  %59 = load ptr, ptr %6, align 8
  %60 = call i32 @get_ber_length(ptr noundef %59, i32 noundef 1, ptr noundef %11, ptr noundef %12)
  %61 = load i32, ptr %11, align 4
  %62 = icmp ult i32 %61, 2
  br i1 %62, label %63, label %64

63:                                               ; preds = %58
  br label %71

64:                                               ; preds = %58
  %65 = load ptr, ptr %6, align 8
  %66 = load ptr, ptr %7, align 8
  %67 = load ptr, ptr %8, align 8
  %68 = load i8, ptr @ldap_desegment, align 1, !range !6, !noundef !7
  %69 = trunc i8 %68 to i1
  %70 = load ptr, ptr %9, align 8
  call void @tcp_dissect_pdus(ptr noundef %65, ptr noundef %66, ptr noundef %67, i1 noundef zeroext %69, i32 noundef 7, ptr noundef @get_normal_ldap_pdu_len, ptr noundef @dissect_normal_ldap_pdu, ptr noundef %70)
  br label %85

71:                                               ; preds = %63, %57
  %72 = load i32, ptr %10, align 4
  %73 = add i32 %72, 4
  %74 = load ptr, ptr %6, align 8
  %75 = call i32 @tvb_reported_length_remaining(ptr noundef %74, i32 noundef 0)
  %76 = icmp eq i32 %73, %75
  br i1 %76, label %77, label %84

77:                                               ; preds = %71
  %78 = load ptr, ptr %6, align 8
  %79 = load ptr, ptr %7, align 8
  %80 = load ptr, ptr %8, align 8
  %81 = load i8, ptr @ldap_desegment, align 1, !range !6, !noundef !7
  %82 = trunc i8 %81 to i1
  %83 = load ptr, ptr %9, align 8
  call void @tcp_dissect_pdus(ptr noundef %78, ptr noundef %79, ptr noundef %80, i1 noundef zeroext %82, i32 noundef 4, ptr noundef @get_sasl_ldap_pdu_len, ptr noundef @dissect_sasl_ldap_pdu, ptr noundef %83)
  br label %84

84:                                               ; preds = %77, %71
  br label %85

85:                                               ; preds = %84, %64
  %86 = load ptr, ptr %6, align 8
  %87 = call i32 @tvb_captured_length(ptr noundef %86)
  store i32 %87, ptr %5, align 4
  store i32 1, ptr %15, align 4
  br label %88

88:                                               ; preds = %85, %43
  call void @llvm.lifetime.end.p0(i64 8, ptr %14) #16
  call void @llvm.lifetime.end.p0(i64 8, ptr %13) #16
  call void @llvm.lifetime.end.p0(i64 1, ptr %12) #16
  call void @llvm.lifetime.end.p0(i64 4, ptr %11) #16
  call void @llvm.lifetime.end.p0(i64 4, ptr %10) #16
  %89 = load i32, ptr %5, align 4
  ret i32 %89
}