; Function Attrs: null_pointer_is_valid sspstrong uwtable
define internal i32 @dissect_ldap_tcp(ptr noundef %0, ptr noundef %1, ptr noundef %2, ptr noundef %3) #0 {
  %5 = alloca i32, align 4
  %6 = alloca i8, align 1
  call void @llvm.lifetime.start.p0(i64 4, ptr nonnull %5) #14
  call void @llvm.lifetime.start.p0(i64 1, ptr nonnull %6) #14
  %7 = tail call ptr @find_conversation_pinfo(ptr noundef %1, i32 noundef 0)
  %.not = icmp eq ptr %7, null
  br i1 %.not, label %11, label %8

8:                                                ; preds = %4
  %9 = load i32, ptr @proto_ldap, align 4
  %10 = tail call ptr @conversation_get_proto_data(ptr noundef nonnull %7, i32 noundef %9)
  br label %11

11:                                               ; preds = %8, %4
  %.0 = phi ptr [ %10, %8 ], [ null, %4 ]
  store ptr null, ptr @ldm_tree, align 8
  %12 = tail call i32 @tvb_get_ntohl(ptr noundef %0, i32 noundef 0)
  %13 = add i32 %12, -2
  %or.cond = icmp ult i32 %13, 1048575
  %14 = icmp ne ptr %.0, null
  %or.cond3 = select i1 %or.cond, i1 %14, i1 false
  br i1 %or.cond3, label %15, label %21

15:                                               ; preds = %11
  %16 = load i32, ptr %.0, align 8
  %.not31 = icmp eq i32 %16, 3
  br i1 %.not31, label %17, label %21

17:                                               ; preds = %15
  %18 = load i8, ptr @ldap_desegment, align 1, !range !6, !noundef !7
  %19 = trunc nuw i8 %18 to i1
  tail call void @tcp_dissect_pdus(ptr noundef %0, ptr noundef %1, ptr noundef %2, i1 noundef zeroext %19, i32 noundef 4, ptr noundef nonnull @get_sasl_ldap_pdu_len, ptr noundef nonnull @dissect_sasl_ldap_pdu, ptr noundef %3)
  %20 = tail call i32 @tvb_captured_length(ptr noundef %0)
  br label %39

21:                                               ; preds = %15, %11
  %22 = tail call zeroext i8 @tvb_get_uint8(ptr noundef %0, i32 noundef 0)
  %.not32 = icmp eq i8 %22, 48
  br i1 %.not32, label %23, label %30

23:                                               ; preds = %21
  %24 = call i32 @get_ber_length(ptr noundef %0, i32 noundef 1, ptr noundef nonnull %5, ptr noundef nonnull %6)
  %25 = load i32, ptr %5, align 4
  %26 = icmp ult i32 %25, 2
  br i1 %26, label %30, label %27

27:                                               ; preds = %23
  %28 = load i8, ptr @ldap_desegment, align 1, !range !6, !noundef !7
  %29 = trunc nuw i8 %28 to i1
  call void @tcp_dissect_pdus(ptr noundef %0, ptr noundef %1, ptr noundef %2, i1 noundef zeroext %29, i32 noundef 7, ptr noundef nonnull @get_normal_ldap_pdu_len, ptr noundef nonnull @dissect_normal_ldap_pdu, ptr noundef %3)
  br label %37

30:                                               ; preds = %23, %21
  %31 = add i32 %12, 4
  %32 = call i32 @tvb_reported_length_remaining(ptr noundef %0, i32 noundef 0)
  %33 = icmp eq i32 %31, %32
  br i1 %33, label %34, label %37

34:                                               ; preds = %30
  %35 = load i8, ptr @ldap_desegment, align 1, !range !6, !noundef !7
  %36 = trunc nuw i8 %35 to i1
  call void @tcp_dissect_pdus(ptr noundef %0, ptr noundef %1, ptr noundef %2, i1 noundef zeroext %36, i32 noundef 4, ptr noundef nonnull @get_sasl_ldap_pdu_len, ptr noundef nonnull @dissect_sasl_ldap_pdu, ptr noundef %3)
  br label %37

37:                                               ; preds = %30, %34, %27
  %38 = call i32 @tvb_captured_length(ptr noundef %0)
  br label %39

39:                                               ; preds = %37, %17
  %.029 = phi i32 [ %38, %37 ], [ %20, %17 ]
  call void @llvm.lifetime.end.p0(i64 1, ptr nonnull %6) #14
  call void @llvm.lifetime.end.p0(i64 4, ptr nonnull %5) #14
  ret i32 %.029
}